Certificate:
    Data:
        Version: 3 (0x2)
        Serial Number: 22 (0x16)
    Signature Algorithm: sha256WithRSAEncryption
        Issuer: C=ES, ST=Zaragoza, L=Zaragoza, O=Signu, OU=Signu, CN=SignuCA/emailAddress=signu.app@gmail.com
        Validity
            Not Before: Oct  8 15:49:33 2018 GMT
            Not After : Oct  8 15:49:33 2019 GMT
        Subject: C=ES, ST=Zaragoza, O=Signu, OU=Signu, CN=SignuTest/emailAddress=testXLWaQ@gmail.com
        Subject Public Key Info:
            Public Key Algorithm: rsaEncryption
                Public-Key: (4096 bit)
                Modulus:
                    00:ac:a4:8f:06:81:16:c9:17:04:26:d8:73:ca:b0:
                    15:56:04:c2:ea:07:4d:08:60:36:02:de:08:e6:8d:
                    e0:3a:f4:a4:25:f8:e1:cd:6b:bd:74:10:ef:a8:7e:
                    0f:7a:73:87:fe:6d:cc:d8:68:b2:c3:e2:5e:45:62:
                    b3:fe:35:dc:0b:95:af:fb:fe:97:fe:f4:db:f4:86:
                    a8:b1:77:17:26:e6:3d:8c:09:ff:cb:74:7c:d5:32:
                    15:6a:1a:15:72:19:ef:a9:b9:39:28:55:49:bd:33:
                    8c:0d:71:7d:fb:63:f7:75:db:35:51:10:8c:b9:12:
                    23:34:c3:20:20:48:84:ca:06:ae:fa:13:ee:f9:66:
                    40:5d:3e:f1:0f:aa:c7:f4:3e:ed:ce:5a:13:f3:a3:
                    ad:45:8d:a1:f4:00:c0:f2:38:37:4c:08:7f:22:9d:
                    46:21:33:7b:99:e1:68:09:d2:ad:30:b1:e8:64:97:
                    c4:6d:6e:26:e2:04:b7:f5:ae:9e:43:54:3a:ae:1d:
                    27:90:2e:c2:96:a4:56:52:89:68:cb:96:9e:fb:7f:
                    1a:8a:99:f1:a7:7d:a5:83:47:d3:9f:e8:90:ba:85:
                    79:63:de:fe:d2:ca:32:91:63:92:e7:53:f9:2b:1b:
                    5d:99:42:01:48:df:f0:33:02:40:6b:77:9f:3f:56:
                    73:b6:e2:da:95:a8:5e:8b:7c:61:0f:a0:9c:dd:55:
                    5d:58:f4:cd:99:ec:2a:03:ec:e6:31:94:49:8c:1b:
                    5f:f1:15:93:30:33:49:24:6d:29:49:4c:d6:66:fa:
                    dd:bf:dd:e6:6c:00:72:64:e6:fb:6e:54:e0:07:c1:
                    01:54:65:0f:30:94:31:67:67:38:c4:1e:fa:7a:13:
                    a6:54:39:df:d5:5d:63:c0:bd:31:4e:47:48:82:df:
                    3c:bb:7c:75:75:60:24:1c:da:a6:ba:99:cd:f6:d2:
                    2f:81:98:5e:4d:fb:30:90:65:9e:c6:94:f7:1d:16:
                    cc:cc:33:60:7e:13:74:94:34:98:80:98:0f:f2:30:
                    26:c4:32:66:bf:d5:08:72:4b:07:62:cb:6d:d8:3d:
                    3c:45:49:9c:9d:e0:95:97:84:63:eb:af:0b:fd:7b:
                    d8:f3:1b:f4:3f:7b:f6:a9:ed:7e:86:b0:da:6a:50:
                    6f:d5:c0:a5:24:1a:6d:35:5a:5b:da:ee:be:07:3f:
                    01:07:79:d3:21:e5:1c:e5:a2:09:af:6d:3c:0f:47:
                    97:01:2b:8f:13:ca:ba:e9:29:8e:16:1c:80:a7:c1:
                    18:5f:6c:ac:18:27:52:8a:e7:2a:42:88:2c:eb:3d:
                    cc:7f:aa:b9:95:85:cc:04:cf:90:e7:31:83:dd:6c:
                    3b:5f:a5
                Exponent: 65537 (0x10001)
        X509v3 extensions:
            X509v3 Basic Constraints: 
                CA:FALSE
            Netscape Comment: 
                OpenSSL Generated Certificate
            X509v3 Subject Key Identifier: 
                E1:25:F7:FA:D1:0D:C9:34:74:4D:AB:37:3B:CB:B0:E9:47:18:4D:9B
            X509v3 Authority Key Identifier: 
                keyid:D2:BA:ED:61:FA:3D:50:02:C6:CC:55:33:97:27:79:C9:C8:26:E4:4E

            X509v3 Extended Key Usage: critical
                Time Stamping
    Signature Algorithm: sha256WithRSAEncryption
         0c:d1:d8:67:a5:da:73:86:10:ec:0a:b7:77:72:c0:06:62:58:
         2e:c0:0a:ec:53:a5:61:9a:00:ea:71:54:e4:57:c7:2a:88:01:
         13:4f:69:88:0d:52:7c:39:77:e6:6e:27:fa:4e:5f:29:2a:f6:
         61:3c:fe:1e:7e:26:df:0a:46:0e:70:9c:01:10:c4:2d:31:1e:
         ec:0d:17:f9:0c:69:50:00:e0:67:1e:1c:6c:c5:3f:6d:57:b3:
         18:73:97:06:55:bf:4f:a5:4d:f5:51:44:5e:e3:89:2e:08:ef:
         2e:5a:25:b1:c1:33:37:5a:54:b4:ac:7c:e4:c7:06:c7:29:dd:
         b2:1f:68:a6:50:bf:a2:89:e9:8c:88:cf:7e:16:95:dc:f5:c8:
         4b:dd:01:fb:d7:fe:99:27:b2:f1:6e:52:de:69:95:28:1b:be:
         d1:33:5b:83:7f:58:69:85:4b:7d:d5:cb:fb:c9:54:92:c7:e5:
         23:ef:c4:95:ec:69:b4:94:44:a5:d7:b1:82:72:31:4a:15:a3:
         d2:1a:9d:5d:4a:b6:e6:6a:ab:ff:c8:d4:6a:11:02:86:46:1c:
         30:2d:df:c2:c2:2e:e4:12:1b:e6:88:f8:e8:55:e1:33:5a:c7:
         f6:d9:18:bc:27:1e:35:fc:2b:95:d0:16:0f:af:f8:75:81:ed:
         77:66:fc:0d:21:5f:49:cc:f9:8b:ea:71:30:ad:51:0d:0d:44:
         bb:12:26:b6:36:96:c2:46:e7:5c:42:1f:58:0e:dd:34:bb:d7:
         ae:f9:10:0a:12:19:c8:e9:33:13:86:f6:41:ed:ff:c6:e1:f1:
         6f:91:24:fb:55:37:c0:97:2b:0f:17:39:3e:50:67:ed:f5:0d:
         39:de:fc:68:45:81:db:ae:6f:e4:9b:79:91:09:cc:5d:8a:c3:
         84:96:38:28:7c:5d:36:d3:fe:27:32:e0:d7:6e:a5:bb:5c:41:
         df:47:ef:f2:f3:1b:95:b5:12:57:f1:d1:c5:0c:7f:8a:bc:b5:
         0a:b6:fe:e7:56:f5:da:52:29:54:43:b0:d3:da:ac:14:99:5c:
         17:c5:4e:8a:90:f9:07:c2:3d:e7:88:6b:7e:0b:dc:21:21:9c:
         3f:87:ca:4d:4c:bc:e8:3d:6d:26:c6:da:49:b4:ba:74:5a:fd:
         ff:f7:68:3e:80:0a:2a:fc:16:3d:26:30:55:28:2b:f3:d5:9f:
         dd:81:14:c6:ce:33:66:db:26:c6:c6:d9:07:d7:11:84:0c:33:
         ad:1d:7d:09:5a:f4:15:47:ab:93:8d:7a:4b:e8:41:a9:9c:06:
         dd:15:1c:a3:a7:81:eb:39:78:4d:2c:b7:63:5d:c3:31:a2:02:
         53:e2:d3:30:21:55:b3:56
-----BEGIN CERTIFICATE-----
MIIGEjCCA/qgAwIBAgIBFjANBgkqhkiG9w0BAQsFADCBiTELMAkGA1UEBhMCRVMx
ETAPBgNVBAgMCFphcmFnb3phMREwDwYDVQQHDAhaYXJhZ296YTEOMAwGA1UECgwF
U2lnbnUxDjAMBgNVBAsMBVNpZ251MRAwDgYDVQQDDAdTaWdudUNBMSIwIAYJKoZI
hvcNAQkBFhNzaWdudS5hcHBAZ21haWwuY29tMB4XDTE4MTAwODE1NDkzM1oXDTE5
MTAwODE1NDkzM1oweDELMAkGA1UEBhMCRVMxETAPBgNVBAgMCFphcmFnb3phMQ4w
DAYDVQQKDAVTaWdudTEOMAwGA1UECwwFU2lnbnUxEjAQBgNVBAMMCVNpZ251VGVz
dDEiMCAGCSqGSIb3DQEJARYTdGVzdFhMV2FRQGdtYWlsLmNvbTCCAiIwDQYJKoZI
hvcNAQEBBQADggIPADCCAgoCggIBAKykjwaBFskXBCbYc8qwFVYEwuoHTQhgNgLe
COaN4Dr0pCX44c1rvXQQ76h+D3pzh/5tzNhossPiXkVis/413AuVr/v+l/702/SG
qLF3FybmPYwJ/8t0fNUyFWoaFXIZ76m5OShVSb0zjA1xfftj93XbNVEQjLkSIzTD
ICBIhMoGrvoT7vlmQF0+8Q+qx/Q+7c5aE/OjrUWNofQAwPI4N0wIfyKdRiEze5nh
aAnSrTCx6GSXxG1uJuIEt/WunkNUOq4dJ5AuwpakVlKJaMuWnvt/GoqZ8ad9pYNH
05/okLqFeWPe/tLKMpFjkudT+SsbXZlCAUjf8DMCQGt3nz9Wc7bi2pWoXot8YQ+g
nN1VXVj0zZnsKgPs5jGUSYwbX/EVkzAzSSRtKUlM1mb63b/d5mwAcmTm+25U4AfB
AVRlDzCUMWdnOMQe+noTplQ539VdY8C9MU5HSILfPLt8dXVgJBzaprqZzfbSL4GY
Xk37MJBlnsaU9x0WzMwzYH4TdJQ0mICYD/IwJsQyZr/VCHJLB2LLbdg9PEVJnJ3g
lZeEY+uvC/172PMb9D979qntfoaw2mpQb9XApSQabTVaW9ruvgc/AQd50yHlHOWi
Ca9tPA9HlwErjxPKuukpjhYcgKfBGF9srBgnUornKkKILOs9zH+quZWFzATPkOcx
g91sO1+lAgMBAAGjgZQwgZEwCQYDVR0TBAIwADAsBglghkgBhvhCAQ0EHxYdT3Bl
blNTTCBHZW5lcmF0ZWQgQ2VydGlmaWNhdGUwHQYDVR0OBBYEFOEl9/rRDck0dE2r
NzvLsOlHGE2bMB8GA1UdIwQYMBaAFNK67WH6PVACxsxVM5cnecnIJuROMBYGA1Ud
JQEB/wQMMAoGCCsGAQUFBwMIMA0GCSqGSIb3DQEBCwUAA4ICAQAM0dhnpdpzhhDs
Crd3csAGYlguwArsU6VhmgDqcVTkV8cqiAETT2mIDVJ8OXfmbif6Tl8pKvZhPP4e
fibfCkYOcJwBEMQtMR7sDRf5DGlQAOBnHhxsxT9tV7MYc5cGVb9PpU31UURe44ku
CO8uWiWxwTM3WlS0rHzkxwbHKd2yH2imUL+iiemMiM9+FpXc9chL3QH71/6ZJ7Lx
blLeaZUoG77RM1uDf1hphUt91cv7yVSSx+Uj78SV7Gm0lESl17GCcjFKFaPSGp1d
Srbmaqv/yNRqEQKGRhwwLd/Cwi7kEhvmiPjoVeEzWsf22Ri8Jx41/CuV0BYPr/h1
ge13ZvwNIV9JzPmL6nEwrVENDUS7Eia2NpbCRudcQh9YDt00u9eu+RAKEhnI6TMT
hvZB7f/G4fFvkST7VTfAlysPFzk+UGft9Q053vxoRYHbrm/km3mRCcxdisOEljgo
fF020/4nMuDXbqW7XEHfR+/y8xuVtRJX8dHFDH+KvLUKtv7nVvXaUilUQ7DT2qwU
mVwXxU6KkPkHwj3niGt+C9whIZw/h8pNTLzoPW0mxtpJtLp0Wv3/92g+gAoq/BY9
JjBVKCvz1Z/dgRTGzjNm2ybGxtkH1xGEDDOtHX0JWvQVR6uTjXpL6EGpnAbdFRyj
p4HrOXhNLLdjXcMxogJT4tMwIVWzVg==
-----END CERTIFICATE-----
