Certificate:
    Data:
        Version: 3 (0x2)
        Serial Number: 20 (0x14)
    Signature Algorithm: sha256WithRSAEncryption
        Issuer: C=ES, ST=Zaragoza, L=Zaragoza, O=Signu, OU=Signu, CN=SignuCA/emailAddress=signu.app@gmail.com
        Validity
            Not Before: Oct  8 15:09:18 2018 GMT
            Not After : Oct  8 15:09:18 2019 GMT
        Subject: C=ES, ST=Zaragoza, O=Signu, OU=Signu, CN=SignuTest/emailAddress=testJvv8I@gmail.com
        Subject Public Key Info:
            Public Key Algorithm: rsaEncryption
                Public-Key: (4096 bit)
                Modulus:
                    00:b0:1f:6a:0d:93:06:89:bb:18:1e:01:11:b8:7d:
                    b3:06:09:4c:a5:2b:31:00:97:c1:52:76:43:6a:d7:
                    8a:96:de:1f:43:15:9e:1c:98:79:b2:81:77:de:db:
                    4f:d9:26:fc:97:64:d1:a5:94:1b:36:f3:1f:41:f3:
                    26:be:75:1e:40:b6:01:bb:e2:b8:3c:f7:28:d9:d9:
                    23:70:6e:b4:01:92:f8:3b:63:1b:66:c2:7c:33:58:
                    dc:fc:e0:32:c2:9a:a2:3f:5c:27:a4:6c:84:50:27:
                    72:3a:ba:bc:a6:a6:5d:73:d7:d5:71:b6:c2:da:96:
                    f6:15:68:4a:c7:c8:72:55:7b:52:48:94:49:c8:5b:
                    4c:2f:6d:ba:24:11:a5:35:79:b1:a0:3c:45:b9:11:
                    8d:32:70:9d:ae:58:a1:cb:f5:d7:55:e4:13:ba:70:
                    a7:ef:d3:ed:97:21:97:8e:bd:00:6a:88:48:8d:ec:
                    14:a9:32:17:6a:9e:ec:ae:61:79:87:3b:dc:03:db:
                    da:23:53:95:0d:34:ed:a3:a4:fa:e8:b2:be:53:c9:
                    6f:fc:fc:17:c3:2b:42:ca:a4:80:7b:92:99:a3:ce:
                    4a:e0:37:9e:ad:38:bd:42:07:02:f0:36:0d:ec:27:
                    68:b0:6a:98:53:34:5c:57:37:cf:72:84:c5:39:9f:
                    36:9a:bd:35:d3:1c:bf:a4:94:8c:5c:4a:02:ad:7b:
                    fe:a0:d0:35:2b:ca:fe:3e:b5:94:61:28:62:61:63:
                    e5:a3:50:f7:49:5a:7d:17:57:88:4b:90:a1:b9:c3:
                    cf:06:63:76:82:a1:4f:48:ab:43:c2:0f:f8:c2:02:
                    82:7d:cc:47:6d:4e:f8:07:b2:0b:e6:ab:52:65:df:
                    aa:08:2c:d1:ef:52:89:51:fa:eb:35:6a:14:4e:61:
                    77:6c:f2:18:65:30:b9:f4:aa:94:1f:88:e1:95:c0:
                    11:4a:b5:b8:51:7b:57:bc:2b:60:b5:99:83:b2:1c:
                    56:c7:57:99:b9:50:b6:d0:ed:c3:d5:83:0c:ea:94:
                    cf:3b:aa:2c:5b:b2:a0:d9:e0:04:e8:87:ad:80:fe:
                    20:cd:cf:7d:25:d8:67:49:e7:a7:9f:b8:2a:66:72:
                    65:7b:52:65:81:16:62:c0:d5:f1:7c:47:c8:a2:77:
                    3c:14:61:04:46:96:95:84:d5:a6:a0:72:fe:f0:5d:
                    53:27:88:cb:99:ba:ac:be:4d:51:50:c6:68:55:82:
                    fb:0a:27:af:64:3b:78:7a:84:be:d2:85:7a:fb:4a:
                    fc:69:32:23:bd:2e:1e:4e:6e:b9:65:bd:b4:00:fe:
                    93:b7:f5:33:3f:48:77:4a:d2:ce:3b:46:1b:01:61:
                    4f:e2:3b
                Exponent: 65537 (0x10001)
        X509v3 extensions:
            X509v3 Basic Constraints: 
                CA:FALSE
            Netscape Comment: 
                OpenSSL Generated Certificate
            X509v3 Subject Key Identifier: 
                8B:FB:81:68:18:D1:65:4B:ED:47:B1:0B:AE:FC:DA:F7:20:DE:DF:13
            X509v3 Authority Key Identifier: 
                keyid:D2:BA:ED:61:FA:3D:50:02:C6:CC:55:33:97:27:79:C9:C8:26:E4:4E

            X509v3 Extended Key Usage: critical
                Time Stamping
    Signature Algorithm: sha256WithRSAEncryption
         72:5c:a5:e2:9b:f2:56:4c:8c:fe:ac:95:f8:82:93:cc:b0:36:
         b5:10:9e:8c:71:1f:fb:9b:25:5e:2b:c4:90:9c:6e:10:96:47:
         0f:2a:aa:ee:db:21:1b:d4:0b:38:bd:96:fd:02:39:05:68:43:
         29:d4:65:e0:a9:c4:f9:77:7b:9d:2e:eb:2e:07:73:82:f1:1e:
         db:87:96:9c:48:33:3d:1f:7d:72:7c:58:ee:14:3c:98:bc:7f:
         06:5f:39:2e:8d:3c:e0:59:22:ba:f8:c1:8e:58:d4:a3:e5:22:
         6d:93:2c:75:5d:26:2b:d1:15:35:6d:4e:0b:76:43:e3:eb:f3:
         7d:55:87:6b:4e:52:ab:e4:4d:55:c5:41:fe:f4:27:09:47:6b:
         ca:59:11:1c:05:fe:fb:10:9e:7d:16:6b:65:7e:3a:14:e0:59:
         b2:6f:e1:d5:f8:25:2b:22:a9:f5:9d:90:e4:f8:65:ce:b2:3e:
         97:3e:da:aa:ff:99:8a:45:38:2c:65:3b:81:0b:30:12:d4:a9:
         f5:38:4c:8e:1e:75:aa:b9:05:cd:ea:9e:7b:a6:02:cd:a7:0b:
         2f:f7:f0:12:37:c1:dc:7c:2e:11:f6:f4:fc:d4:6c:a4:49:b7:
         e0:9a:08:2c:89:ca:4c:48:11:2c:cf:9a:1d:dd:d8:4b:c9:4f:
         f6:ff:a9:5d:1a:20:70:46:8f:18:96:c9:f4:49:35:24:35:b7:
         41:96:0e:44:bb:dd:33:56:e2:c8:46:3f:e8:10:d8:88:57:f8:
         6b:85:d5:41:f6:22:a1:c6:52:22:e8:4f:29:43:83:57:56:76:
         ea:12:01:7e:2c:f4:75:f2:bf:01:b2:d9:7c:8d:8c:98:36:40:
         61:c7:71:44:53:e7:09:4c:f1:3d:2b:e7:37:b9:25:e8:b9:47:
         aa:db:de:e7:cf:fe:aa:85:30:9a:82:39:36:9c:92:32:bb:e2:
         2e:d1:88:a1:cd:84:cf:aa:59:78:9c:73:36:5c:86:02:39:a9:
         40:58:83:1e:f5:d2:22:5d:e8:10:fe:1a:35:c7:ac:c1:ff:61:
         8b:f2:12:90:e2:90:bf:7f:e8:8e:5e:fb:c6:97:53:4a:a9:73:
         8c:33:91:54:65:ca:a3:06:0f:44:38:bb:01:9a:57:db:fe:83:
         1e:b9:e8:27:c3:4b:22:6b:09:5d:11:15:72:96:4d:6d:81:a0:
         f7:2e:ab:38:21:3b:92:15:ca:37:d0:c9:9e:43:8f:21:41:22:
         51:c2:9b:68:12:d8:6c:d2:c7:ee:a4:dc:f4:c3:4a:12:b8:8a:
         b3:d7:b7:81:8b:43:e8:66:71:0e:97:2e:cf:66:20:fd:f2:e5:
         18:26:02:68:cc:7f:cd:79
-----BEGIN CERTIFICATE-----
MIIGEjCCA/qgAwIBAgIBFDANBgkqhkiG9w0BAQsFADCBiTELMAkGA1UEBhMCRVMx
ETAPBgNVBAgMCFphcmFnb3phMREwDwYDVQQHDAhaYXJhZ296YTEOMAwGA1UECgwF
U2lnbnUxDjAMBgNVBAsMBVNpZ251MRAwDgYDVQQDDAdTaWdudUNBMSIwIAYJKoZI
hvcNAQkBFhNzaWdudS5hcHBAZ21haWwuY29tMB4XDTE4MTAwODE1MDkxOFoXDTE5
MTAwODE1MDkxOFoweDELMAkGA1UEBhMCRVMxETAPBgNVBAgMCFphcmFnb3phMQ4w
DAYDVQQKDAVTaWdudTEOMAwGA1UECwwFU2lnbnUxEjAQBgNVBAMMCVNpZ251VGVz
dDEiMCAGCSqGSIb3DQEJARYTdGVzdEp2djhJQGdtYWlsLmNvbTCCAiIwDQYJKoZI
hvcNAQEBBQADggIPADCCAgoCggIBALAfag2TBom7GB4BEbh9swYJTKUrMQCXwVJ2
Q2rXipbeH0MVnhyYebKBd97bT9km/Jdk0aWUGzbzH0HzJr51HkC2AbviuDz3KNnZ
I3ButAGS+DtjG2bCfDNY3PzgMsKaoj9cJ6RshFAncjq6vKamXXPX1XG2wtqW9hVo
SsfIclV7UkiUSchbTC9tuiQRpTV5saA8RbkRjTJwna5Yocv111XkE7pwp+/T7Zch
l469AGqISI3sFKkyF2qe7K5heYc73APb2iNTlQ007aOk+uiyvlPJb/z8F8MrQsqk
gHuSmaPOSuA3nq04vUIHAvA2DewnaLBqmFM0XFc3z3KExTmfNpq9NdMcv6SUjFxK
Aq17/qDQNSvK/j61lGEoYmFj5aNQ90lafRdXiEuQobnDzwZjdoKhT0irQ8IP+MIC
gn3MR21O+AeyC+arUmXfqggs0e9SiVH66zVqFE5hd2zyGGUwufSqlB+I4ZXAEUq1
uFF7V7wrYLWZg7IcVsdXmblQttDtw9WDDOqUzzuqLFuyoNngBOiHrYD+IM3PfSXY
Z0nnp5+4KmZyZXtSZYEWYsDV8XxHyKJ3PBRhBEaWlYTVpqBy/vBdUyeIy5m6rL5N
UVDGaFWC+wonr2Q7eHqEvtKFevtK/GkyI70uHk5uuWW9tAD+k7f1Mz9Id0rSzjtG
GwFhT+I7AgMBAAGjgZQwgZEwCQYDVR0TBAIwADAsBglghkgBhvhCAQ0EHxYdT3Bl
blNTTCBHZW5lcmF0ZWQgQ2VydGlmaWNhdGUwHQYDVR0OBBYEFIv7gWgY0WVL7Uex
C6782vcg3t8TMB8GA1UdIwQYMBaAFNK67WH6PVACxsxVM5cnecnIJuROMBYGA1Ud
JQEB/wQMMAoGCCsGAQUFBwMIMA0GCSqGSIb3DQEBCwUAA4ICAQByXKXim/JWTIz+
rJX4gpPMsDa1EJ6McR/7myVeK8SQnG4QlkcPKqru2yEb1As4vZb9AjkFaEMp1GXg
qcT5d3udLusuB3OC8R7bh5acSDM9H31yfFjuFDyYvH8GXzkujTzgWSK6+MGOWNSj
5SJtkyx1XSYr0RU1bU4LdkPj6/N9VYdrTlKr5E1VxUH+9CcJR2vKWREcBf77EJ59
FmtlfjoU4Fmyb+HV+CUrIqn1nZDk+GXOsj6XPtqq/5mKRTgsZTuBCzAS1Kn1OEyO
HnWquQXN6p57pgLNpwsv9/ASN8HcfC4R9vT81GykSbfgmggsicpMSBEsz5od3dhL
yU/2/6ldGiBwRo8Ylsn0STUkNbdBlg5Eu90zVuLIRj/oENiIV/hrhdVB9iKhxlIi
6E8pQ4NXVnbqEgF+LPR18r8Bstl8jYyYNkBhx3FEU+cJTPE9K+c3uSXouUeq297n
z/6qhTCagjk2nJIyu+Iu0YihzYTPqll4nHM2XIYCOalAWIMe9dIiXegQ/ho1x6zB
/2GL8hKQ4pC/f+iOXvvGl1NKqXOMM5FUZcqjBg9EOLsBmlfb/oMeuegnw0siawld
ERVylk1tgaD3Lqs4ITuSFco30MmeQ48hQSJRwptoEths0sfupNz0w0oSuIqz17eB
i0PoZnEOly7PZiD98uUYJgJozH/NeQ==
-----END CERTIFICATE-----
