Certificate:
    Data:
        Version: 3 (0x2)
        Serial Number: 1 (0x1)
    Signature Algorithm: sha256WithRSAEncryption
        Issuer: C=ES, ST=Zaragoza, L=Zaragoza, O=Signu, OU=Signu, CN=Signu/emailAddress=sobrenombre@gmail.com
        Validity
            Not Before: Feb 26 15:13:11 2018 GMT
            Not After : Feb 26 15:13:11 2019 GMT
        Subject: C=ES, ST=Zaragoza, O=Signu, OU=Signu, CN=Signu/emailAddress=sobrenombre@gmail.com
        Subject Public Key Info:
            Public Key Algorithm: rsaEncryption
                Public-Key: (4096 bit)
                Modulus:
                    00:95:49:06:cf:24:03:8e:a8:c7:5d:27:b8:f6:fe:
                    38:47:bf:1a:95:b1:12:ff:c6:fd:2e:73:ab:d0:1c:
                    e2:84:bd:91:cd:14:c3:d5:4d:a9:ac:9e:b9:63:57:
                    c0:2e:c3:56:16:74:22:23:79:47:c4:8e:2f:07:3e:
                    bb:8f:e1:5e:73:c0:3a:70:05:8a:08:95:af:68:7f:
                    6d:dd:91:49:3d:46:6c:79:22:14:85:68:15:26:8b:
                    fc:66:b4:f6:8d:df:48:7f:3b:bb:bb:a2:00:6e:25:
                    d8:3e:ec:bd:96:40:ab:3d:4f:a9:3e:c7:12:c9:ff:
                    0a:af:74:b9:52:60:9f:ef:d4:e7:da:6e:2c:f8:aa:
                    36:7b:a4:f2:6b:bc:b1:56:4b:c5:80:b4:f6:44:98:
                    e3:ac:1a:bc:4c:b0:a0:5d:e3:46:06:a4:4f:54:0e:
                    fe:a2:6b:27:b5:96:3b:0b:57:ed:ce:6d:02:7d:c5:
                    4b:1d:be:d7:2a:0d:bb:3e:ac:ca:8c:3d:46:f1:a3:
                    5e:86:b6:82:19:b0:82:a0:bc:0d:80:52:99:02:61:
                    6b:c9:0d:d0:0d:10:56:11:ab:4e:39:d8:ba:d4:48:
                    7c:fc:ad:da:65:27:d8:0a:07:b9:99:a5:55:e9:8f:
                    ed:80:1e:95:2f:48:dd:e9:5e:e1:b8:8a:10:2e:f8:
                    5a:1d:fa:75:61:39:4a:06:b9:ef:88:89:31:45:78:
                    18:74:f9:04:f6:60:60:f8:fe:0d:ca:07:c7:1a:80:
                    de:b8:3d:47:00:54:b1:f4:ea:f8:af:38:82:1d:40:
                    6a:00:47:e0:b8:08:6c:99:c0:3f:df:79:61:a1:86:
                    3a:de:64:9c:3f:4c:d1:5e:ce:85:bb:2d:25:50:58:
                    5b:fc:b8:10:f7:77:51:14:0d:92:f1:35:0b:6f:aa:
                    17:a6:d1:ec:73:cc:0b:32:55:d2:f6:5b:b0:bc:af:
                    61:8f:1e:84:ec:83:fb:68:65:90:f3:a0:2c:40:97:
                    8c:ce:b3:b3:78:13:e4:61:ee:30:e3:90:37:f9:fc:
                    57:76:fa:4d:12:2f:dd:2c:ec:b5:8c:24:77:0d:c3:
                    d5:3a:40:98:92:e7:10:fd:17:3d:d9:f1:a7:4a:4e:
                    9f:4b:9c:b4:84:f5:99:01:4d:d3:c6:f4:ce:a1:3a:
                    65:cf:9c:08:92:a4:b1:93:ce:56:a0:68:0b:c3:ef:
                    ca:11:97:dc:89:34:ab:86:19:de:9c:56:ca:4b:bd:
                    2d:50:6f:76:4d:ee:b5:40:e4:63:cf:78:68:ea:d0:
                    75:ef:1a:59:95:b9:62:18:eb:54:8e:c2:3a:3b:0c:
                    b0:45:c9:1d:ba:cc:71:31:f9:fa:30:4f:2e:23:bf:
                    07:b2:f5
                Exponent: 65537 (0x10001)
        X509v3 extensions:
            X509v3 Basic Constraints: 
                CA:FALSE
            Netscape Comment: 
                OpenSSL Generated Certificate
            X509v3 Subject Key Identifier: 
                EA:F9:42:5C:29:AE:FD:2C:50:8A:EB:34:5F:44:E2:3E:60:5A:12:F3
            X509v3 Authority Key Identifier: 
                keyid:A5:0C:D4:F2:E2:15:8C:D7:15:15:5D:42:21:8D:0D:9E:C9:72:9D:68

            X509v3 Extended Key Usage: critical
                Time Stamping
    Signature Algorithm: sha256WithRSAEncryption
         71:21:92:75:71:2b:ee:bd:0d:29:c8:5f:44:02:93:e9:89:ab:
         79:84:82:a6:d4:43:22:14:45:f1:f1:6d:38:d5:68:a7:ca:36:
         21:a3:30:a9:0f:3e:d6:42:65:eb:88:f3:f4:61:96:d2:d1:4c:
         cd:c8:5f:c4:9f:65:02:dd:74:b5:c1:18:5f:cb:f9:a4:d4:e3:
         e5:f4:ae:32:d2:9b:45:80:85:a5:23:bd:41:93:a8:c8:27:d3:
         f5:e9:43:24:69:eb:28:fa:01:e3:1f:1f:51:ac:f4:fa:e2:80:
         76:8f:4a:8d:de:cf:ca:b7:4f:9c:ec:2d:fe:98:b6:f3:f4:db:
         f7:5f:9d:e7:a8:85:9e:cc:1c:11:f0:7b:ad:ff:dc:56:6c:6b:
         97:02:66:2a:95:1c:20:a9:35:ba:90:0c:67:57:14:24:a9:e8:
         13:61:1b:32:c5:00:e4:24:6e:04:11:50:bf:74:96:4b:32:d7:
         63:c4:5a:c1:1f:ff:a7:86:4b:0f:fc:50:9e:40:24:bb:fe:0a:
         60:92:82:c9:c8:e8:b9:80:a8:60:34:6e:fd:b2:7a:23:84:74:
         41:50:4c:a3:3b:02:bb:15:bc:59:42:f6:e8:3c:51:a1:4f:30:
         4a:12:64:19:d7:97:99:22:f7:b6:9d:36:07:03:99:a9:c1:ce:
         55:66:c7:f3:9c:96:a7:7f:c9:6c:83:f8:cc:ec:a3:19:fe:fc:
         7b:6e:49:9c:c4:81:6f:2a:61:6a:1e:12:01:91:fd:64:7b:27:
         3b:98:36:1b:34:3e:ac:f3:ce:4d:f5:d0:b9:70:c3:cd:b2:8c:
         3e:d5:ed:db:52:ab:3b:8a:4a:5a:38:a0:94:53:ea:18:ba:5e:
         51:13:a1:fb:99:41:b4:2a:65:75:43:a0:66:19:61:e7:0f:c3:
         3a:85:cc:97:cc:25:1b:e7:46:f8:76:e1:cd:df:bd:a7:73:0a:
         1b:8b:f6:f6:8b:a6:41:04:d4:66:b0:9b:7f:89:d6:02:d4:9d:
         13:cf:d7:ab:0a:e2:4e:a7:c6:43:a8:66:af:7d:d5:c7:27:32:
         ab:67:f2:c1:9d:b8:5e:bf:02:2a:8e:dc:6f:71:e4:39:1f:9a:
         f0:17:42:32:49:a9:97:b2:ee:cd:e5:de:ff:aa:0e:7d:c4:fa:
         f3:c9:90:04:1e:f8:69:c1:04:c5:1a:fc:96:68:c3:e0:c1:97:
         17:00:d3:53:2c:b1:17:16:77:ac:44:56:89:fe:98:73:8f:1d:
         62:da:e7:9f:a0:6b:c7:b5:ec:c9:88:8f:5a:fe:c3:d1:b7:18:
         84:b1:17:26:20:f1:fb:90:e4:b6:44:a5:0e:e0:35:c9:76:29:
         aa:7a:39:35:8c:9e:4e:b0
-----BEGIN CERTIFICATE-----
MIIGEDCCA/igAwIBAgIBATANBgkqhkiG9w0BAQsFADCBiTELMAkGA1UEBhMCRVMx
ETAPBgNVBAgMCFphcmFnb3phMREwDwYDVQQHDAhaYXJhZ296YTEOMAwGA1UECgwF
U2lnbnUxDjAMBgNVBAsMBVNpZ251MQ4wDAYDVQQDDAVTaWdudTEkMCIGCSqGSIb3
DQEJARYVc29icmVub21icmVAZ21haWwuY29tMB4XDTE4MDIyNjE1MTMxMVoXDTE5
MDIyNjE1MTMxMVowdjELMAkGA1UEBhMCRVMxETAPBgNVBAgMCFphcmFnb3phMQ4w
DAYDVQQKDAVTaWdudTEOMAwGA1UECwwFU2lnbnUxDjAMBgNVBAMMBVNpZ251MSQw
IgYJKoZIhvcNAQkBFhVzb2JyZW5vbWJyZUBnbWFpbC5jb20wggIiMA0GCSqGSIb3
DQEBAQUAA4ICDwAwggIKAoICAQCVSQbPJAOOqMddJ7j2/jhHvxqVsRL/xv0uc6vQ
HOKEvZHNFMPVTamsnrljV8Auw1YWdCIjeUfEji8HPruP4V5zwDpwBYoIla9of23d
kUk9Rmx5IhSFaBUmi/xmtPaN30h/O7u7ogBuJdg+7L2WQKs9T6k+xxLJ/wqvdLlS
YJ/v1Ofabiz4qjZ7pPJrvLFWS8WAtPZEmOOsGrxMsKBd40YGpE9UDv6iaye1ljsL
V+3ObQJ9xUsdvtcqDbs+rMqMPUbxo16GtoIZsIKgvA2AUpkCYWvJDdANEFYRq045
2LrUSHz8rdplJ9gKB7mZpVXpj+2AHpUvSN3pXuG4ihAu+Fod+nVhOUoGue+IiTFF
eBh0+QT2YGD4/g3KB8cagN64PUcAVLH06vivOIIdQGoAR+C4CGyZwD/feWGhhjre
ZJw/TNFezoW7LSVQWFv8uBD3d1EUDZLxNQtvqhem0exzzAsyVdL2W7C8r2GPHoTs
g/toZZDzoCxAl4zOs7N4E+Rh7jDjkDf5/Fd2+k0SL90s7LWMJHcNw9U6QJiS5xD9
Fz3Z8adKTp9LnLSE9ZkBTdPG9M6hOmXPnAiSpLGTzlagaAvD78oRl9yJNKuGGd6c
VspLvS1Qb3ZN7rVA5GPPeGjq0HXvGlmVuWIY61SOwjo7DLBFyR26zHEx+fowTy4j
vwey9QIDAQABo4GUMIGRMAkGA1UdEwQCMAAwLAYJYIZIAYb4QgENBB8WHU9wZW5T
U0wgR2VuZXJhdGVkIENlcnRpZmljYXRlMB0GA1UdDgQWBBTq+UJcKa79LFCK6zRf
ROI+YFoS8zAfBgNVHSMEGDAWgBSlDNTy4hWM1xUVXUIhjQ2eyXKdaDAWBgNVHSUB
Af8EDDAKBggrBgEFBQcDCDANBgkqhkiG9w0BAQsFAAOCAgEAcSGSdXEr7r0NKchf
RAKT6YmreYSCptRDIhRF8fFtONVop8o2IaMwqQ8+1kJl64jz9GGW0tFMzchfxJ9l
At10tcEYX8v5pNTj5fSuMtKbRYCFpSO9QZOoyCfT9elDJGnrKPoB4x8fUaz0+uKA
do9Kjd7PyrdPnOwt/pi28/Tb91+d56iFnswcEfB7rf/cVmxrlwJmKpUcIKk1upAM
Z1cUJKnoE2EbMsUA5CRuBBFQv3SWSzLXY8RawR//p4ZLD/xQnkAku/4KYJKCycjo
uYCoYDRu/bJ6I4R0QVBMozsCuxW8WUL26DxRoU8wShJkGdeXmSL3tp02BwOZqcHO
VWbH85yWp3/JbIP4zOyjGf78e25JnMSBbyphah4SAZH9ZHsnO5g2GzQ+rPPOTfXQ
uXDDzbKMPtXt21KrO4pKWjiglFPqGLpeUROh+5lBtCpldUOgZhlh5w/DOoXMl8wl
G+dG+Hbhzd+9p3MKG4v29oumQQTUZrCbf4nWAtSdE8/XqwriTqfGQ6hmr33Vxycy
q2fywZ24Xr8CKo7cb3HkOR+a8BdCMkmpl7LuzeXe/6oOfcT688mQBB74acEExRr8
lmjD4MGXFwDTUyyxFxZ3rERWif6Yc48dYtrnn6Brx7XsyYiPWv7D0bcYhLEXJiDx
+5DktkSlDuA1yXYpqno5NYyeTrA=
-----END CERTIFICATE-----
