Certificate:
    Data:
        Version: 3 (0x2)
        Serial Number: 1 (0x1)
    Signature Algorithm: sha256WithRSAEncryption
        Issuer: C=ES, ST=Zaragoza, L=Zaragoza, O=Signu, OU=Signu, CN=SignuCA/emailAddress=signu.app@gmail.com
        Validity
            Not Before: Oct  2 15:08:28 2018 GMT
            Not After : Oct  2 15:08:28 2019 GMT
        Subject: C=ES, ST=Zaragoza, O=Signu, OU=Signu, CN=SignuTSA/emailAddress=signu.app@gmail.com
        Subject Public Key Info:
            Public Key Algorithm: rsaEncryption
                Public-Key: (4096 bit)
                Modulus:
                    00:eb:71:73:17:c3:14:51:a5:f2:3c:d6:dd:ab:22:
                    fc:60:4f:ab:0e:14:22:67:27:d3:46:b1:fe:71:82:
                    3d:c6:86:0e:85:ad:e9:4c:3c:ed:34:6a:72:2f:9f:
                    b7:06:3a:3f:2b:e0:17:e5:fb:81:36:44:23:57:e7:
                    37:b6:fe:62:f7:82:d6:3f:3f:4b:f9:fc:9a:a8:57:
                    6c:57:ae:20:c0:16:9e:6d:ad:47:79:f0:95:d0:7a:
                    f6:d7:19:93:e8:48:75:cc:6d:ec:c7:80:73:27:43:
                    df:fe:84:72:cf:97:0a:84:0d:9c:8e:59:68:99:63:
                    46:06:e4:fb:d9:8e:a5:7e:34:65:ad:c4:84:2d:eb:
                    cb:fd:00:87:dc:25:d4:52:3b:1b:1b:c7:f9:9d:77:
                    e5:2c:b0:ad:c2:9f:6d:88:91:b5:d9:85:35:e4:72:
                    9a:f5:77:d7:70:a2:12:45:b9:45:5c:20:4c:16:d4:
                    74:c2:2a:6c:2c:21:bf:6c:2e:a7:9a:92:bf:66:fc:
                    31:28:21:d8:6e:ce:6c:c0:97:21:ca:30:58:19:2c:
                    f9:ea:93:fb:d2:aa:d4:f4:7b:4f:be:8c:e0:09:03:
                    90:e1:43:62:6a:e6:ee:77:9e:b7:d4:aa:ae:86:4f:
                    36:f6:d8:58:1a:8f:89:44:50:a5:76:a1:f0:1e:57:
                    bf:3c:4f:fb:6a:b7:48:5d:33:4e:11:0f:5d:46:29:
                    d5:87:d6:cb:fa:b1:a7:5c:5e:f3:9f:bf:08:e4:88:
                    9f:ea:42:3b:ef:ee:37:9b:76:44:89:79:ee:70:1d:
                    48:b0:df:d1:fe:77:4a:ca:bc:2f:7a:2b:8b:eb:d3:
                    f0:11:33:4b:ac:17:98:e4:da:87:c3:74:64:46:15:
                    78:45:05:3f:e2:0b:56:67:c8:48:8f:c7:22:8d:55:
                    36:e3:53:7e:3e:8a:56:bc:f2:37:43:1a:d8:90:33:
                    16:ba:5b:1a:50:39:e7:03:55:3e:e7:be:2b:e5:34:
                    c9:2f:7c:05:17:e5:1f:9b:9c:5d:cb:4c:c5:a6:2f:
                    91:f4:6c:8a:7d:00:89:30:26:fe:8b:d6:a4:3c:d9:
                    08:99:f3:a8:ce:5c:ea:20:0c:8b:2e:7d:a0:7a:29:
                    38:2c:3a:41:9c:6a:33:eb:c9:68:53:e1:4c:27:28:
                    c7:7b:a8:6a:5e:53:70:a1:02:62:f3:44:e1:a0:02:
                    75:9b:93:07:5c:45:4d:db:7d:8b:b7:9a:b0:9a:7e:
                    e6:ea:9b:9d:da:bf:f4:22:d1:12:af:fe:39:71:3b:
                    18:80:4b:a8:c2:15:a6:bc:69:68:1f:1e:68:24:18:
                    ba:f6:76:9c:dd:b4:7c:18:b2:2e:59:05:cc:c8:58:
                    64:e3:8b
                Exponent: 65537 (0x10001)
        X509v3 extensions:
            X509v3 Basic Constraints: 
                CA:FALSE
            Netscape Comment: 
                OpenSSL Generated Certificate
            X509v3 Subject Key Identifier: 
                97:38:3A:D8:4B:C2:EF:E4:5D:08:74:23:AE:45:65:DD:E2:DD:97:8B
            X509v3 Authority Key Identifier: 
                keyid:2B:39:79:9F:BD:25:8E:1D:A5:B5:54:63:08:9A:1D:19:83:8F:F6:5D

            X509v3 Extended Key Usage: critical
                Time Stamping
    Signature Algorithm: sha256WithRSAEncryption
         79:9d:8f:75:21:2d:46:f0:21:d4:f7:b9:31:45:36:2c:07:29:
         cc:80:ea:1b:42:07:1d:f3:75:63:c2:96:3c:42:7f:df:09:a9:
         24:4e:52:a4:be:65:c5:d0:96:b0:fc:92:9c:54:7d:d7:8f:15:
         a1:51:cd:23:4c:04:3a:76:0c:7a:16:d8:7c:0d:3a:76:ff:c2:
         5e:af:d5:0c:bf:3a:77:ac:ea:3e:d2:0d:86:d7:d7:c4:97:a1:
         36:ec:96:71:a0:1f:55:e2:3a:55:f6:8d:92:2a:9f:e6:e6:e9:
         94:89:7a:b0:80:89:d1:5b:32:b6:e3:14:11:e9:37:12:87:f2:
         ce:bd:2f:ad:5b:f3:93:e8:0e:b7:ca:c3:57:59:09:d8:4a:b8:
         6f:3e:27:db:ed:16:d7:dc:7d:1c:31:74:b0:f9:ea:25:55:7d:
         35:2d:db:d7:c1:4a:2b:61:25:39:4b:b1:02:34:1c:c2:1a:97:
         ed:8c:fa:2d:09:69:13:33:f9:79:d2:c6:bd:ee:02:1b:2c:55:
         6d:32:d8:86:c4:24:00:4b:17:0e:3a:9e:bc:9c:cf:96:52:0a:
         af:86:3d:95:9a:ae:ed:9e:5c:5f:81:ce:21:2a:b0:24:03:74:
         2f:7b:8b:20:ef:df:13:c9:e4:bc:08:24:a7:23:ba:19:8d:11:
         b0:b5:d3:c3:19:16:cd:c1:6e:1b:60:07:09:e4:a8:32:e5:ed:
         da:6b:3a:02:6c:ae:46:7d:7c:31:66:79:1d:5e:48:53:53:fc:
         c2:d6:cb:40:67:f9:ea:2a:d3:f6:cd:58:00:86:39:d8:f9:8f:
         5d:da:65:ab:18:4a:cc:bd:71:39:01:b1:9c:29:a2:90:d4:57:
         09:43:67:a0:c3:97:31:72:6d:f1:48:96:f3:f2:6d:f4:28:43:
         65:bc:3a:3c:ab:a2:30:73:02:65:49:2a:ab:8e:b1:c7:a5:94:
         bc:8d:d4:15:36:da:a1:ba:19:93:e0:15:67:75:37:2e:8f:6a:
         93:20:ac:37:4e:b0:97:23:03:c2:e5:9e:75:d3:cd:54:60:e7:
         dd:25:f1:e5:5b:75:9d:e9:5e:4f:78:e9:01:0a:20:6c:a6:cd:
         29:5e:3d:a2:5f:8f:0e:9d:7e:ea:85:5a:0c:6c:ff:dd:59:a5:
         fc:8e:42:ac:c6:1d:b2:50:e2:8d:a1:1b:ef:ac:b7:60:05:cd:
         0e:f8:0b:8f:0c:8a:2b:c0:c7:16:ff:75:51:0c:22:48:31:ac:
         32:9a:e7:2e:45:36:3a:45:a1:8a:d1:7f:75:c3:42:29:cf:00:
         34:f7:f6:ea:ee:e6:31:4c:53:9e:67:21:3d:2a:04:6c:47:77:
         f1:e9:35:0c:b6:34:ef:3a
-----BEGIN CERTIFICATE-----
MIIGETCCA/mgAwIBAgIBATANBgkqhkiG9w0BAQsFADCBiTELMAkGA1UEBhMCRVMx
ETAPBgNVBAgMCFphcmFnb3phMREwDwYDVQQHDAhaYXJhZ296YTEOMAwGA1UECgwF
U2lnbnUxDjAMBgNVBAsMBVNpZ251MRAwDgYDVQQDDAdTaWdudUNBMSIwIAYJKoZI
hvcNAQkBFhNzaWdudS5hcHBAZ21haWwuY29tMB4XDTE4MTAwMjE1MDgyOFoXDTE5
MTAwMjE1MDgyOFowdzELMAkGA1UEBhMCRVMxETAPBgNVBAgMCFphcmFnb3phMQ4w
DAYDVQQKDAVTaWdudTEOMAwGA1UECwwFU2lnbnUxETAPBgNVBAMMCFNpZ251VFNB
MSIwIAYJKoZIhvcNAQkBFhNzaWdudS5hcHBAZ21haWwuY29tMIICIjANBgkqhkiG
9w0BAQEFAAOCAg8AMIICCgKCAgEA63FzF8MUUaXyPNbdqyL8YE+rDhQiZyfTRrH+
cYI9xoYOha3pTDztNGpyL5+3Bjo/K+AX5fuBNkQjV+c3tv5i94LWPz9L+fyaqFds
V64gwBaeba1HefCV0Hr21xmT6Eh1zG3sx4BzJ0Pf/oRyz5cKhA2cjllomWNGBuT7
2Y6lfjRlrcSELevL/QCH3CXUUjsbG8f5nXflLLCtwp9tiJG12YU15HKa9XfXcKIS
RblFXCBMFtR0wipsLCG/bC6nmpK/ZvwxKCHYbs5swJchyjBYGSz56pP70qrU9HtP
vozgCQOQ4UNiaubud5631Kquhk829thYGo+JRFCldqHwHle/PE/7ardIXTNOEQ9d
RinVh9bL+rGnXF7zn78I5Iif6kI77+43m3ZEiXnucB1IsN/R/ndKyrwveiuL69Pw
ETNLrBeY5NqHw3RkRhV4RQU/4gtWZ8hIj8cijVU241N+PopWvPI3QxrYkDMWulsa
UDnnA1U+574r5TTJL3wFF+Ufm5xdy0zFpi+R9GyKfQCJMCb+i9akPNkImfOozlzq
IAyLLn2geik4LDpBnGoz68loU+FMJyjHe6hqXlNwoQJi80ThoAJ1m5MHXEVN232L
t5qwmn7m6pud2r/0ItESr/45cTsYgEuowhWmvGloHx5oJBi69nac3bR8GLIuWQXM
yFhk44sCAwEAAaOBlDCBkTAJBgNVHRMEAjAAMCwGCWCGSAGG+EIBDQQfFh1PcGVu
U1NMIEdlbmVyYXRlZCBDZXJ0aWZpY2F0ZTAdBgNVHQ4EFgQUlzg62EvC7+RdCHQj
rkVl3eLdl4swHwYDVR0jBBgwFoAUKzl5n70ljh2ltVRjCJodGYOP9l0wFgYDVR0l
AQH/BAwwCgYIKwYBBQUHAwgwDQYJKoZIhvcNAQELBQADggIBAHmdj3UhLUbwIdT3
uTFFNiwHKcyA6htCBx3zdWPCljxCf98JqSROUqS+ZcXQlrD8kpxUfdePFaFRzSNM
BDp2DHoW2HwNOnb/wl6v1Qy/Ones6j7SDYbX18SXoTbslnGgH1XiOlX2jZIqn+bm
6ZSJerCAidFbMrbjFBHpNxKH8s69L61b85PoDrfKw1dZCdhKuG8+J9vtFtfcfRwx
dLD56iVVfTUt29fBSithJTlLsQI0HMIal+2M+i0JaRMz+XnSxr3uAhssVW0y2IbE
JABLFw46nrycz5ZSCq+GPZWaru2eXF+BziEqsCQDdC97iyDv3xPJ5LwIJKcjuhmN
EbC108MZFs3BbhtgBwnkqDLl7dprOgJsrkZ9fDFmeR1eSFNT/MLWy0Bn+eoq0/bN
WACGOdj5j13aZasYSsy9cTkBsZwpopDUVwlDZ6DDlzFybfFIlvPybfQoQ2W8Ojyr
ojBzAmVJKquOscellLyN1BU22qG6GZPgFWd1Ny6PapMgrDdOsJcjA8LlnnXTzVRg
590l8eVbdZ3pXk946QEKIGymzSlePaJfjw6dfuqFWgxs/91ZpfyOQqzGHbJQ4o2h
G++st2AFzQ74C48MiivAxxb/dVEMIkgxrDKa5y5FNjpFoYrRf3XDQinPADT39uru
5jFMU55nIT0qBGxHd/HpNQy2NO86
-----END CERTIFICATE-----
