Certificate:
    Data:
        Version: 3 (0x2)
        Serial Number: 1 (0x1)
    Signature Algorithm: sha256WithRSAEncryption
        Issuer: C=ES, ST=Zaragoza, L=Zaragoza, O=Signu, OU=Signu, CN=SignuCA/emailAddress=signu.app@gmail.com
        Validity
            Not Before: Oct  4 12:03:23 2018 GMT
            Not After : Oct  4 12:03:23 2019 GMT
        Subject: C=ES, ST=Zaragoza, O=Signu, OU=Signu, CN=SignuTSA/emailAddress=signu.app@gmail.com
        Subject Public Key Info:
            Public Key Algorithm: rsaEncryption
                Public-Key: (4096 bit)
                Modulus:
                    00:bb:6c:36:ae:5f:d9:06:63:d7:a3:03:b4:07:af:
                    9c:95:fb:14:01:5d:f1:f7:74:5d:b2:c2:a0:1d:44:
                    45:af:55:8e:ef:d2:f0:51:d8:be:0a:24:f9:7d:57:
                    99:5c:29:b3:54:38:f8:2a:cb:59:16:99:1d:a8:62:
                    d8:31:08:b5:2b:3c:59:c7:05:23:5e:32:ed:37:8b:
                    d4:02:89:9a:25:24:a9:dc:88:91:26:12:9a:67:fb:
                    c1:20:2a:1b:9f:b5:4b:ae:05:85:5b:f7:34:e3:b3:
                    5d:82:27:77:2d:80:e7:03:97:98:bf:c6:9f:79:e1:
                    16:92:2e:8e:36:ce:ba:0a:0f:ce:26:a9:84:c8:ca:
                    45:62:3f:c7:d2:a9:9b:ca:6d:dc:d8:aa:a7:d1:07:
                    af:41:50:63:e4:a4:a2:a0:02:03:69:25:64:fa:28:
                    13:bf:13:41:0d:72:c2:55:3a:f8:4d:6d:1c:99:f3:
                    f5:1d:10:e3:95:f3:42:bb:f2:db:41:f1:2c:96:9d:
                    9f:d3:2b:72:3c:02:a4:50:bd:9c:1b:2b:42:1f:37:
                    a9:ce:c0:fa:9d:62:c6:80:ed:50:f7:c1:59:70:9a:
                    b9:0e:fe:f3:88:2b:9d:60:17:9e:e9:65:54:31:95:
                    be:dc:d9:20:dc:87:29:e6:b3:33:2f:fa:65:10:92:
                    40:e8:63:db:2b:40:69:66:83:1f:d2:c7:6a:ae:73:
                    d7:01:52:e0:fa:f1:01:f1:65:d5:fa:e0:0c:c6:93:
                    0b:ce:af:9a:f5:3c:17:fb:14:5b:c5:15:ac:df:a4:
                    27:14:d4:83:9a:ed:41:03:bd:d6:67:55:04:e1:5f:
                    1f:45:7b:a8:fd:0a:2b:8f:4f:eb:82:fb:cc:85:eb:
                    1a:67:cd:0e:61:c3:95:62:c7:84:78:8f:72:e2:ba:
                    fb:40:7c:aa:8f:10:19:c8:7e:41:08:c2:41:43:73:
                    a3:7a:ae:6f:be:32:ad:8b:a7:ef:88:b2:41:3c:eb:
                    b6:0a:42:b7:4a:32:d8:f1:01:0f:ad:f7:d3:56:05:
                    00:90:30:b5:ef:9b:66:ce:63:8b:c2:1d:40:68:a3:
                    50:fc:33:28:ea:9d:e4:c4:3c:f5:15:c6:0c:f8:a5:
                    68:07:a7:48:cb:71:51:c0:39:ef:46:b1:55:a1:13:
                    b0:ea:46:9e:dc:72:c5:2e:51:32:67:e8:13:65:69:
                    ba:eb:d3:2f:c8:47:ea:dd:db:29:f0:d9:fd:af:8d:
                    82:36:80:04:60:2d:cf:1d:a0:dd:fc:5f:22:b8:95:
                    31:5f:40:f4:b1:e3:02:85:08:a1:73:c5:58:1d:24:
                    b2:0a:a3:44:d1:8b:ed:81:55:38:e8:33:4c:45:7d:
                    7f:24:4f
                Exponent: 65537 (0x10001)
        X509v3 extensions:
            X509v3 Basic Constraints: 
                CA:FALSE
            Netscape Comment: 
                OpenSSL Generated Certificate
            X509v3 Subject Key Identifier: 
                90:68:70:33:65:8D:BF:38:39:8A:92:3A:82:2C:1A:A6:B5:41:96:32
            X509v3 Authority Key Identifier: 
                keyid:D2:BA:ED:61:FA:3D:50:02:C6:CC:55:33:97:27:79:C9:C8:26:E4:4E

            X509v3 Extended Key Usage: critical
                Time Stamping
    Signature Algorithm: sha256WithRSAEncryption
         45:05:08:76:83:91:0f:d7:e1:27:e5:17:2a:d4:e7:0b:9f:42:
         23:cf:93:55:26:49:c3:e7:d1:4e:70:23:73:56:e0:61:46:34:
         a4:aa:79:22:f1:53:de:9b:a2:16:52:38:e5:44:23:31:fc:61:
         3e:c5:d6:df:c7:05:90:45:60:fb:8f:be:2d:7d:c7:57:ae:cb:
         cd:d9:17:2c:ca:55:9e:bc:c5:af:12:bc:e3:4c:23:a6:d8:13:
         5e:d6:ba:ba:c4:06:49:a6:15:b9:6a:a1:4c:5c:c5:33:c8:8e:
         a1:08:c9:87:3d:1d:8f:0d:1b:e4:a2:0a:1a:c6:5d:0e:8f:a4:
         5e:ca:43:2d:44:a7:13:14:bc:65:50:49:0e:2e:31:5d:55:65:
         de:0d:02:ab:c3:12:12:40:92:9d:49:f8:34:b6:4a:48:86:79:
         fa:64:42:93:65:8f:4c:05:5d:26:80:ac:73:5a:63:68:13:09:
         29:bb:2b:a5:bc:3e:c7:85:45:5d:ef:ee:69:66:dc:73:27:cc:
         fe:b8:26:02:4a:a6:54:b5:2e:7a:34:87:44:37:6a:36:d4:69:
         ed:3a:6b:b4:17:fa:34:09:81:a8:90:85:bc:23:3e:c6:5d:a5:
         43:a5:34:ba:8c:c9:80:16:80:c6:7c:73:86:28:ba:71:2c:0e:
         f1:6e:72:0e:d1:e6:ad:f3:be:34:86:b1:47:d8:24:18:65:fa:
         93:fd:f7:56:44:1f:b4:3c:0d:0a:a9:3b:24:f0:a5:f5:30:dd:
         5f:a1:21:b9:d7:a3:a0:2e:b2:17:14:9a:3c:74:c4:f7:fc:24:
         85:58:f9:85:93:4a:b1:97:3a:37:f4:61:04:3c:34:05:39:b9:
         09:6b:bb:df:54:b5:ef:f3:28:a8:79:ac:8b:47:27:7a:3d:bf:
         0f:85:8f:a4:f8:39:db:31:d7:4b:2e:fd:48:67:d5:fd:7e:06:
         f0:99:e4:33:a2:7a:fc:7e:19:69:71:d5:84:02:83:81:ee:3e:
         72:17:ea:33:7f:30:b0:37:a0:d4:ed:69:f6:85:9e:b8:ea:9e:
         e5:f0:19:16:d4:73:30:92:17:b2:6b:73:b3:53:ca:e1:b7:63:
         f6:91:6e:67:b1:a0:ee:bf:9b:4f:de:29:80:7a:4b:a9:a5:96:
         71:d7:85:b8:14:04:e7:fe:85:8a:0b:d2:a9:ef:b9:05:ea:c5:
         f0:4a:14:40:4b:18:eb:85:2e:2b:60:1d:70:8c:18:4e:00:13:
         1b:1f:45:36:ab:05:50:50:84:39:da:c3:c8:f8:86:85:e9:d1:
         21:2a:a2:95:a5:70:90:5a:f4:33:d3:94:4c:b1:d1:c6:9c:f3:
         a7:7d:2a:b9:65:76:c2:b2
-----BEGIN CERTIFICATE-----
MIIGETCCA/mgAwIBAgIBATANBgkqhkiG9w0BAQsFADCBiTELMAkGA1UEBhMCRVMx
ETAPBgNVBAgMCFphcmFnb3phMREwDwYDVQQHDAhaYXJhZ296YTEOMAwGA1UECgwF
U2lnbnUxDjAMBgNVBAsMBVNpZ251MRAwDgYDVQQDDAdTaWdudUNBMSIwIAYJKoZI
hvcNAQkBFhNzaWdudS5hcHBAZ21haWwuY29tMB4XDTE4MTAwNDEyMDMyM1oXDTE5
MTAwNDEyMDMyM1owdzELMAkGA1UEBhMCRVMxETAPBgNVBAgMCFphcmFnb3phMQ4w
DAYDVQQKDAVTaWdudTEOMAwGA1UECwwFU2lnbnUxETAPBgNVBAMMCFNpZ251VFNB
MSIwIAYJKoZIhvcNAQkBFhNzaWdudS5hcHBAZ21haWwuY29tMIICIjANBgkqhkiG
9w0BAQEFAAOCAg8AMIICCgKCAgEAu2w2rl/ZBmPXowO0B6+clfsUAV3x93RdssKg
HURFr1WO79LwUdi+CiT5fVeZXCmzVDj4KstZFpkdqGLYMQi1KzxZxwUjXjLtN4vU
AomaJSSp3IiRJhKaZ/vBICobn7VLrgWFW/c047Ndgid3LYDnA5eYv8afeeEWki6O
Ns66Cg/OJqmEyMpFYj/H0qmbym3c2Kqn0QevQVBj5KSioAIDaSVk+igTvxNBDXLC
VTr4TW0cmfP1HRDjlfNCu/LbQfEslp2f0ytyPAKkUL2cGytCHzepzsD6nWLGgO1Q
98FZcJq5Dv7ziCudYBee6WVUMZW+3Nkg3Icp5rMzL/plEJJA6GPbK0BpZoMf0sdq
rnPXAVLg+vEB8WXV+uAMxpMLzq+a9TwX+xRbxRWs36QnFNSDmu1BA73WZ1UE4V8f
RXuo/Qorj0/rgvvMhesaZ80OYcOVYseEeI9y4rr7QHyqjxAZyH5BCMJBQ3Ojeq5v
vjKti6fviLJBPOu2CkK3SjLY8QEPrffTVgUAkDC175tmzmOLwh1AaKNQ/DMo6p3k
xDz1FcYM+KVoB6dIy3FRwDnvRrFVoROw6kae3HLFLlEyZ+gTZWm669MvyEfq3dsp
8Nn9r42CNoAEYC3PHaDd/F8iuJUxX0D0seMChQihc8VYHSSyCqNE0YvtgVU46DNM
RX1/JE8CAwEAAaOBlDCBkTAJBgNVHRMEAjAAMCwGCWCGSAGG+EIBDQQfFh1PcGVu
U1NMIEdlbmVyYXRlZCBDZXJ0aWZpY2F0ZTAdBgNVHQ4EFgQUkGhwM2WNvzg5ipI6
giwaprVBljIwHwYDVR0jBBgwFoAU0rrtYfo9UALGzFUzlyd5ycgm5E4wFgYDVR0l
AQH/BAwwCgYIKwYBBQUHAwgwDQYJKoZIhvcNAQELBQADggIBAEUFCHaDkQ/X4Sfl
FyrU5wufQiPPk1UmScPn0U5wI3NW4GFGNKSqeSLxU96bohZSOOVEIzH8YT7F1t/H
BZBFYPuPvi19x1euy83ZFyzKVZ68xa8SvONMI6bYE17WurrEBkmmFblqoUxcxTPI
jqEIyYc9HY8NG+SiChrGXQ6PpF7KQy1EpxMUvGVQSQ4uMV1VZd4NAqvDEhJAkp1J
+DS2SkiGefpkQpNlj0wFXSaArHNaY2gTCSm7K6W8PseFRV3v7mlm3HMnzP64JgJK
plS1Lno0h0Q3ajbUae06a7QX+jQJgaiQhbwjPsZdpUOlNLqMyYAWgMZ8c4YounEs
DvFucg7R5q3zvjSGsUfYJBhl+pP991ZEH7Q8DQqpOyTwpfUw3V+hIbnXo6AushcU
mjx0xPf8JIVY+YWTSrGXOjf0YQQ8NAU5uQlru99Ute/zKKh5rItHJ3o9vw+Fj6T4
Odsx10su/Uhn1f1+BvCZ5DOievx+GWlx1YQCg4HuPnIX6jN/MLA3oNTtafaFnrjq
nuXwGRbUczCSF7Jrc7NTyuG3Y/aRbmexoO6/m0/eKYB6S6mllnHXhbgUBOf+hYoL
0qnvuQXqxfBKFEBLGOuFLitgHXCMGE4AExsfRTarBVBQhDnaw8j4hoXp0SEqopWl
cJBa9DPTlEyx0cac86d9KrlldsKy
-----END CERTIFICATE-----
